; ModuleID = '7/888.c'
source_filename = "7/888.c"
target datalayout = "e-m:e-p270:32:32-p271:32:32-p272:64:64-i64:64-f80:128-n8:16:32:64-S128"
target triple = "x86_64-pc-linux-gnu"

@.str = private unnamed_addr constant [9 x i8] c"%s %s %s\00", align 1
@.str.1 = private unnamed_addr constant [3 x i8] c"%s\00", align 1

; Function Attrs: noinline nounwind uwtable
define dso_local i32 @main() #0 {
  %1 = alloca i32, align 4
  %2 = alloca [1000 x i8], align 16
  %3 = alloca [1000 x i8], align 16
  %4 = alloca [1000 x i8], align 16
  %5 = alloca i8*, align 8
  %6 = alloca i8*, align 8
  %7 = alloca i8*, align 8
  %8 = alloca i8*, align 8
  %9 = alloca i32, align 4
  store i32 0, i32* %1, align 4
  %10 = getelementptr inbounds [1000 x i8], [1000 x i8]* %2, i64 0, i64 0
  %11 = getelementptr inbounds [1000 x i8], [1000 x i8]* %3, i64 0, i64 0
  %12 = getelementptr inbounds [1000 x i8], [1000 x i8]* %4, i64 0, i64 0
  %13 = call i32 (i8*, ...) @__isoc99_scanf(i8* getelementptr inbounds ([9 x i8], [9 x i8]* @.str, i64 0, i64 0), i8* %10, i8* %11, i8* %12)
  %14 = getelementptr inbounds [1000 x i8], [1000 x i8]* %3, i64 0, i64 0
  %15 = call i64 @strlen(i8* %14) #3
  %16 = trunc i64 %15 to i32
  store i32 %16, i32* %9, align 4
  %17 = getelementptr inbounds [1000 x i8], [1000 x i8]* %2, i64 0, i64 0
  store i8* %17, i8** %5, align 8
  br label %18

18:                                               ; preds = %54, %0
  %19 = load i8*, i8** %5, align 8
  %20 = load i8, i8* %19, align 1
  %21 = sext i8 %20 to i32
  %22 = icmp ne i32 %21, 0
  br i1 %22, label %23, label %57

23:                                               ; preds = %18
  %24 = load i8*, i8** %5, align 8
  store i8* %24, i8** %6, align 8
  %25 = getelementptr inbounds [1000 x i8], [1000 x i8]* %3, i64 0, i64 0
  store i8* %25, i8** %7, align 8
  br label %26

26:                                               ; preds = %41, %23
  %27 = load i8*, i8** %7, align 8
  %28 = load i8, i8* %27, align 1
  %29 = sext i8 %28 to i32
  %30 = icmp ne i32 %29, 0
  br i1 %30, label %31, label %46

31:                                               ; preds = %26
  %32 = load i8*, i8** %6, align 8
  %33 = load i8, i8* %32, align 1
  %34 = sext i8 %33 to i32
  %35 = load i8*, i8** %7, align 8
  %36 = load i8, i8* %35, align 1
  %37 = sext i8 %36 to i32
  %38 = icmp ne i32 %34, %37
  br i1 %38, label %39, label %40

39:                                               ; preds = %31
  br label %46

40:                                               ; preds = %31
  br label %41

41:                                               ; preds = %40
  %42 = load i8*, i8** %6, align 8
  %43 = getelementptr inbounds i8, i8* %42, i32 1
  store i8* %43, i8** %6, align 8
  %44 = load i8*, i8** %7, align 8
  %45 = getelementptr inbounds i8, i8* %44, i32 1
  store i8* %45, i8** %7, align 8
  br label %26

46:                                               ; preds = %39, %26
  %47 = load i8*, i8** %7, align 8
  %48 = load i8, i8* %47, align 1
  %49 = sext i8 %48 to i32
  %50 = icmp eq i32 %49, 0
  br i1 %50, label %51, label %53

51:                                               ; preds = %46
  %52 = load i8*, i8** %5, align 8
  store i8* %52, i8** %8, align 8
  br label %57

53:                                               ; preds = %46
  br label %54

54:                                               ; preds = %53
  %55 = load i8*, i8** %5, align 8
  %56 = getelementptr inbounds i8, i8* %55, i32 1
  store i8* %56, i8** %5, align 8
  br label %18

57:                                               ; preds = %51, %18
  %58 = load i8*, i8** %8, align 8
  store i8* %58, i8** %5, align 8
  %59 = getelementptr inbounds [1000 x i8], [1000 x i8]* %4, i64 0, i64 0
  store i8* %59, i8** %6, align 8
  br label %60

60:                                               ; preds = %69, %57
  %61 = load i8*, i8** %6, align 8
  %62 = load i8, i8* %61, align 1
  %63 = sext i8 %62 to i32
  %64 = icmp ne i32 %63, 0
  br i1 %64, label %65, label %74

65:                                               ; preds = %60
  %66 = load i8*, i8** %6, align 8
  %67 = load i8, i8* %66, align 1
  %68 = load i8*, i8** %5, align 8
  store i8 %67, i8* %68, align 1
  br label %69

69:                                               ; preds = %65
  %70 = load i8*, i8** %5, align 8
  %71 = getelementptr inbounds i8, i8* %70, i32 1
  store i8* %71, i8** %5, align 8
  %72 = load i8*, i8** %6, align 8
  %73 = getelementptr inbounds i8, i8* %72, i32 1
  store i8* %73, i8** %6, align 8
  br label %60

74:                                               ; preds = %60
  %75 = getelementptr inbounds [1000 x i8], [1000 x i8]* %2, i64 0, i64 0
  %76 = call i32 (i8*, ...) @printf(i8* getelementptr inbounds ([3 x i8], [3 x i8]* @.str.1, i64 0, i64 0), i8* %75)
  %77 = load i32, i32* %1, align 4
  ret i32 %77
}

declare dso_local i32 @__isoc99_scanf(i8*, ...) #1

; Function Attrs: nounwind readonly
declare dso_local i64 @strlen(i8*) #2

declare dso_local i32 @printf(i8*, ...) #1


!llvm.module.flags = !{!0}
!llvm.ident = !{!1}

!0 = !{i32 1, !"wchar_size", i32 4}
!1 = !{!"clang version 10.0.0-4ubuntu1 "}
