; ModuleID = 'source-C-CXX/6/888.c'
source_filename = "source-C-CXX/6/888.c"
target datalayout = "e-m:e-p270:32:32-p271:32:32-p272:64:64-i64:64-f80:128-n8:16:32:64-S128"
target triple = "x86_64-pc-linux-gnu"

@.str = private unnamed_addr constant [9 x i8] c"%s %s %s\00", align 1
@.str.1 = private unnamed_addr constant [3 x i8] c"%s\00", align 1

; Function Attrs: nofree nounwind sspstrong uwtable
define dso_local i32 @main() local_unnamed_addr #0 {
  %1 = alloca [1000 x i8], align 16
  %2 = alloca [1000 x i8], align 16
  %3 = alloca [1000 x i8], align 16
  %4 = getelementptr inbounds [1000 x i8], [1000 x i8]* %1, i64 0, i64 0
  call void @llvm.lifetime.start.p0i8(i64 1000, i8* nonnull %4) #3
  %5 = getelementptr inbounds [1000 x i8], [1000 x i8]* %2, i64 0, i64 0
  call void @llvm.lifetime.start.p0i8(i64 1000, i8* nonnull %5) #3
  %6 = getelementptr inbounds [1000 x i8], [1000 x i8]* %3, i64 0, i64 0
  call void @llvm.lifetime.start.p0i8(i64 1000, i8* nonnull %6) #3
  %7 = call i32 (i8*, ...) @__isoc99_scanf(i8* getelementptr inbounds ([9 x i8], [9 x i8]* @.str, i64 0, i64 0), i8* nonnull %4, i8* nonnull %5, i8* nonnull %6)
  %8 = load i8, i8* %5, align 16
  %9 = icmp eq i8 %8, 0
  %10 = load i8, i8* %4, align 16, !tbaa !5
  %11 = icmp eq i8 %10, 0
  %12 = select i1 %11, i1 true, i1 %9
  br i1 %12, label %31, label %13

13:                                               ; preds = %0, %27
  %14 = phi i8 [ %29, %27 ], [ %10, %0 ]
  %15 = phi i8* [ %28, %27 ], [ %4, %0 ]
  %16 = icmp eq i8 %14, %8
  br i1 %16, label %17, label %27

17:                                               ; preds = %13, %24
  %18 = phi i8* [ %20, %24 ], [ %15, %13 ]
  %19 = phi i8* [ %21, %24 ], [ %5, %13 ]
  %20 = getelementptr inbounds i8, i8* %18, i64 1
  %21 = getelementptr inbounds i8, i8* %19, i64 1
  %22 = load i8, i8* %21, align 1, !tbaa !5
  %23 = icmp eq i8 %22, 0
  br i1 %23, label %31, label %24, !llvm.loop !8

24:                                               ; preds = %17
  %25 = load i8, i8* %20, align 1, !tbaa !5
  %26 = icmp eq i8 %25, %22
  br i1 %26, label %17, label %27

27:                                               ; preds = %24, %13
  %28 = getelementptr inbounds i8, i8* %15, i64 1
  %29 = load i8, i8* %28, align 1, !tbaa !5
  %30 = icmp eq i8 %29, 0
  br i1 %30, label %31, label %13, !llvm.loop !10

31:                                               ; preds = %27, %17, %0
  %32 = phi i8* [ %4, %0 ], [ %15, %17 ], [ %28, %27 ]
  %33 = load i8, i8* %6, align 16, !tbaa !5
  %34 = icmp eq i8 %33, 0
  br i1 %34, label %43, label %35

35:                                               ; preds = %31, %35
  %36 = phi i8 [ %41, %35 ], [ %33, %31 ]
  %37 = phi i8* [ %39, %35 ], [ %32, %31 ]
  %38 = phi i8* [ %40, %35 ], [ %6, %31 ]
  store i8 %36, i8* %37, align 1, !tbaa !5
  %39 = getelementptr inbounds i8, i8* %37, i64 1
  %40 = getelementptr inbounds i8, i8* %38, i64 1
  %41 = load i8, i8* %40, align 1, !tbaa !5
  %42 = icmp eq i8 %41, 0
  br i1 %42, label %43, label %35, !llvm.loop !11

43:                                               ; preds = %35, %31
  %44 = call i32 (i8*, ...) @printf(i8* nonnull dereferenceable(1) getelementptr inbounds ([3 x i8], [3 x i8]* @.str.1, i64 0, i64 0), i8* nonnull %4)
  call void @llvm.lifetime.end.p0i8(i64 1000, i8* nonnull %6) #3
  call void @llvm.lifetime.end.p0i8(i64 1000, i8* nonnull %5) #3
  call void @llvm.lifetime.end.p0i8(i64 1000, i8* nonnull %4) #3
  ret i32 0
}

; Function Attrs: argmemonly mustprogress nofree nosync nounwind willreturn
declare void @llvm.lifetime.start.p0i8(i64 immarg, i8* nocapture) #1

; Function Attrs: nofree nounwind
declare noundef i32 @__isoc99_scanf(i8* nocapture noundef readonly, ...) local_unnamed_addr #2

; Function Attrs: nofree nounwind
declare noundef i32 @printf(i8* nocapture noundef readonly, ...) local_unnamed_addr #2

; Function Attrs: argmemonly mustprogress nofree nosync nounwind willreturn
declare void @llvm.lifetime.end.p0i8(i64 immarg, i8* nocapture) #1


!llvm.module.flags = !{!0, !1, !2, !3}
!llvm.ident = !{!4}

!0 = !{i32 1, !"wchar_size", i32 4}
!1 = !{i32 7, !"PIC Level", i32 2}
!2 = !{i32 7, !"PIE Level", i32 2}
!3 = !{i32 7, !"uwtable", i32 1}
!4 = !{!"clang version 13.0.0"}
!5 = !{!6, !6, i64 0}
!6 = !{!"omnipotent char", !7, i64 0}
!7 = !{!"Simple C/C++ TBAA"}
!8 = distinct !{!8, !9}
!9 = !{!"llvm.loop.mustprogress"}
!10 = distinct !{!10, !9}
!11 = distinct !{!11, !9}
